target datalayout = "e-m:e-p270:32:32-p271:32:32-p272:64:64-i64:64-i128:128-f80:128-n8:16:32:64-S128"
target triple = "x86_64-pc-linux-gnu"

%struct.Color = type { i8, i8, i8, i8 }

@__const.ColorFromHSV.color = private unnamed_addr constant %struct.Color { i8 0, i8 0, i8 0, i8 -1 }, align 1

; Function Attrs: nounwind uwtable
define i32 @ColorFromHSV(float noundef %0, float noundef %1, float noundef %2) #0 {
  %4 = alloca %struct.Color, align 1
  %5 = alloca float, align 4
  %6 = alloca float, align 4
  %7 = alloca float, align 4
  %8 = alloca float, align 4
  %9 = alloca float, align 4
  store float %0, ptr %5, align 4
  store float %1, ptr %6, align 4
  store float %2, ptr %7, align 4
  call void @llvm.memcpy.p0.p0.i64(ptr align 1 %4, ptr align 1 @__const.ColorFromHSV.color, i64 4, i1 false)
  call void @llvm.lifetime.start.p0(i64 4, ptr %8) #19
  %10 = load float, ptr %5, align 4
  %11 = fdiv float %10, 6.000000e+01
  %12 = fadd float 5.000000e+00, %11
  %13 = call float @fmodf(float noundef %12, float noundef 6.000000e+00) #19
  store float %13, ptr %8, align 4
  call void @llvm.lifetime.start.p0(i64 4, ptr %9) #19
  %14 = load float, ptr %8, align 4
  %15 = fsub float 4.000000e+00, %14
  store float %15, ptr %9, align 4
  %16 = load float, ptr %9, align 4
  %17 = load float, ptr %8, align 4
  %18 = fcmp olt float %16, %17
  br i1 %18, label %19, label %21

19:                                               ; preds = %3
  %20 = load float, ptr %9, align 4
  br label %23

21:                                               ; preds = %3
  %22 = load float, ptr %8, align 4
  br label %23

23:                                               ; preds = %21, %19
  %24 = phi float [ %20, %19 ], [ %22, %21 ]
  store float %24, ptr %8, align 4
  %25 = load float, ptr %8, align 4
  %26 = fcmp olt float %25, 1.000000e+00
  br i1 %26, label %27, label %29

27:                                               ; preds = %23
  %28 = load float, ptr %8, align 4
  br label %30

29:                                               ; preds = %23
  br label %30

30:                                               ; preds = %29, %27
  %31 = phi float [ %28, %27 ], [ 1.000000e+00, %29 ]
  store float %31, ptr %8, align 4
  %32 = load float, ptr %8, align 4
  %33 = fcmp ogt float %32, 0.000000e+00
  br i1 %33, label %34, label %36

34:                                               ; preds = %30
  %35 = load float, ptr %8, align 4
  br label %37

36:                                               ; preds = %30
  br label %37

37:                                               ; preds = %36, %34
  %38 = phi float [ %35, %34 ], [ 0.000000e+00, %36 ]
  store float %38, ptr %8, align 4
  %39 = load float, ptr %7, align 4
  %40 = load float, ptr %7, align 4
  %41 = load float, ptr %6, align 4
  %42 = fmul float %40, %41
  %43 = load float, ptr %8, align 4
  %44 = fmul float %42, %43
  %45 = fsub float %39, %44
  %46 = fmul float %45, 2.550000e+02
  %47 = fptoui float %46 to i8
  %48 = getelementptr inbounds nuw %struct.Color, ptr %4, i32 0, i32 0
  store i8 %47, ptr %48, align 1
  %49 = load float, ptr %5, align 4
  %50 = fdiv float %49, 6.000000e+01
  %51 = fadd float 3.000000e+00, %50
  %52 = call float @fmodf(float noundef %51, float noundef 6.000000e+00) #19
  store float %52, ptr %8, align 4
  %53 = load float, ptr %8, align 4
  %54 = fsub float 4.000000e+00, %53
  store float %54, ptr %9, align 4
  %55 = load float, ptr %9, align 4
  %56 = load float, ptr %8, align 4
  %57 = fcmp olt float %55, %56
  br i1 %57, label %58, label %60

58:                                               ; preds = %37
  %59 = load float, ptr %9, align 4
  br label %62

60:                                               ; preds = %37
  %61 = load float, ptr %8, align 4
  br label %62

62:                                               ; preds = %60, %58
  %63 = phi float [ %59, %58 ], [ %61, %60 ]
  store float %63, ptr %8, align 4
  %64 = load float, ptr %8, align 4
  %65 = fcmp olt float %64, 1.000000e+00
  br i1 %65, label %66, label %68

66:                                               ; preds = %62
  %67 = load float, ptr %8, align 4
  br label %69

68:                                               ; preds = %62
  br label %69

69:                                               ; preds = %68, %66
  %70 = phi float [ %67, %66 ], [ 1.000000e+00, %68 ]
  store float %70, ptr %8, align 4
  %71 = load float, ptr %8, align 4
  %72 = fcmp ogt float %71, 0.000000e+00
  br i1 %72, label %73, label %75

73:                                               ; preds = %69
  %74 = load float, ptr %8, align 4
  br label %76

75:                                               ; preds = %69
  br label %76

76:                                               ; preds = %75, %73
  %77 = phi float [ %74, %73 ], [ 0.000000e+00, %75 ]
  store float %77, ptr %8, align 4
  %78 = load float, ptr %7, align 4
  %79 = load float, ptr %7, align 4
  %80 = load float, ptr %6, align 4
  %81 = fmul float %79, %80
  %82 = load float, ptr %8, align 4
  %83 = fmul float %81, %82
  %84 = fsub float %78, %83
  %85 = fmul float %84, 2.550000e+02
  %86 = fptoui float %85 to i8
  %87 = getelementptr inbounds nuw %struct.Color, ptr %4, i32 0, i32 1
  store i8 %86, ptr %87, align 1
  %88 = load float, ptr %5, align 4
  %89 = fdiv float %88, 6.000000e+01
  %90 = fadd float 1.000000e+00, %89
  %91 = call float @fmodf(float noundef %90, float noundef 6.000000e+00) #19
  store float %91, ptr %8, align 4
  %92 = load float, ptr %8, align 4
  %93 = fsub float 4.000000e+00, %92
  store float %93, ptr %9, align 4
  %94 = load float, ptr %9, align 4
  %95 = load float, ptr %8, align 4
  %96 = fcmp olt float %94, %95
  br i1 %96, label %97, label %99

97:                                               ; preds = %76
  %98 = load float, ptr %9, align 4
  br label %101

99:                                               ; preds = %76
  %100 = load float, ptr %8, align 4
  br label %101

101:                                              ; preds = %99, %97
  %102 = phi float [ %98, %97 ], [ %100, %99 ]
  store float %102, ptr %8, align 4
  %103 = load float, ptr %8, align 4
  %104 = fcmp olt float %103, 1.000000e+00
  br i1 %104, label %105, label %107

105:                                              ; preds = %101
  %106 = load float, ptr %8, align 4
  br label %108

107:                                              ; preds = %101
  br label %108

108:                                              ; preds = %107, %105
  %109 = phi float [ %106, %105 ], [ 1.000000e+00, %107 ]
  store float %109, ptr %8, align 4
  %110 = load float, ptr %8, align 4
  %111 = fcmp ogt float %110, 0.000000e+00
  br i1 %111, label %112, label %114

112:                                              ; preds = %108
  %113 = load float, ptr %8, align 4
  br label %115

114:                                              ; preds = %108
  br label %115

115:                                              ; preds = %114, %112
  %116 = phi float [ %113, %112 ], [ 0.000000e+00, %114 ]
  store float %116, ptr %8, align 4
  %117 = load float, ptr %7, align 4
  %118 = load float, ptr %7, align 4
  %119 = load float, ptr %6, align 4
  %120 = fmul float %118, %119
  %121 = load float, ptr %8, align 4
  %122 = fmul float %120, %121
  %123 = fsub float %117, %122
  %124 = fmul float %123, 2.550000e+02
  %125 = fptoui float %124 to i8
  %126 = getelementptr inbounds nuw %struct.Color, ptr %4, i32 0, i32 2
  store i8 %125, ptr %126, align 1
  call void @llvm.lifetime.end.p0(i64 4, ptr %9) #19
  call void @llvm.lifetime.end.p0(i64 4, ptr %8) #19
  %127 = load i32, ptr %4, align 1
  ret i32 %127
}