; Function Attrs: mustprogress nofree nounwind willreturn memory(write) uwtable
define range(i32 -16777216, 0) i32 @ColorFromHSV(float noundef %0, float noundef %1, float noundef %2) local_unnamed_addr #40 {
  %4 = fdiv float %0, 6.000000e+01
  %5 = fadd float %4, 5.000000e+00
  %6 = tail call float @fmodf(float noundef %5, float noundef 6.000000e+00) #54
  %7 = fsub float 4.000000e+00, %6
  %8 = fcmp olt float %7, %6
  %9 = select i1 %8, float %7, float %6
  %10 = fcmp olt float %9, 1.000000e+00
  %11 = select i1 %10, float %9, float 1.000000e+00
  %12 = fcmp ogt float %11, 0.000000e+00
  %13 = select i1 %12, float %11, float 0.000000e+00
  %14 = fmul float %1, %2
  %15 = fmul float %14, %13
  %16 = fsub float %2, %15
  %17 = fmul float %16, 2.550000e+02
  %18 = fptoui float %17 to i8
  %19 = fadd float %4, 3.000000e+00
  %20 = tail call float @fmodf(float noundef %19, float noundef 6.000000e+00) #54
  %21 = fsub float 4.000000e+00, %20
  %22 = fcmp olt float %21, %20
  %23 = select i1 %22, float %21, float %20
  %24 = fcmp olt float %23, 1.000000e+00
  %25 = select i1 %24, float %23, float 1.000000e+00
  %26 = fcmp ogt float %25, 0.000000e+00
  %27 = select i1 %26, float %25, float 0.000000e+00
  %28 = fmul float %14, %27
  %29 = fsub float %2, %28
  %30 = fmul float %29, 2.550000e+02
  %31 = fptoui float %30 to i8
  %32 = fadd float %4, 1.000000e+00
  %33 = tail call float @fmodf(float noundef %32, float noundef 6.000000e+00) #54
  %34 = fsub float 4.000000e+00, %33
  %35 = fcmp olt float %34, %33
  %36 = select i1 %35, float %34, float %33
  %37 = fcmp olt float %36, 1.000000e+00
  %38 = select i1 %37, float %36, float 1.000000e+00
  %39 = fcmp ogt float %38, 0.000000e+00
  %40 = select i1 %39, float %38, float 0.000000e+00
  %41 = fmul float %14, %40
  %42 = fsub float %2, %41
  %43 = fmul float %42, 2.550000e+02
  %44 = fptoui float %43 to i8
  %.sroa.4.0.insert.ext = zext i8 %44 to i32
  %.sroa.4.0.insert.shift = shl nuw nsw i32 %.sroa.4.0.insert.ext, 16
  %.sroa.3.0.insert.ext = zext i8 %31 to i32
  %.sroa.3.0.insert.shift = shl nuw nsw i32 %.sroa.3.0.insert.ext, 8
  %.sroa.4.0.insert.insert = or disjoint i32 %.sroa.4.0.insert.shift, %.sroa.3.0.insert.shift
  %.sroa.0.0.insert.ext = zext i8 %18 to i32
  %.sroa.3.0.insert.insert = or disjoint i32 %.sroa.4.0.insert.insert, %.sroa.0.0.insert.ext
  %.sroa.0.0.insert.insert = or disjoint i32 %.sroa.3.0.insert.insert, -16777216
  ret i32 %.sroa.0.0.insert.insert
}